target datalayout = "e-m:e-p270:32:32-p271:32:32-p272:64:64-i64:64-i128:128-f80:128-n8:16:32:64-S128"
target triple = "x86_64-pc-linux-gnu"

%"struct.std::array.0" = type { [12 x %"struct.open_spiel::tarok::Contract"] }
%"struct.open_spiel::tarok::Contract" = type <{ i32, i32, i32, i8, i8, i8, i8 }>

@_ZN10open_spiel5tarok9TarokGame10contracts_E = linkonce_odr global %"struct.std::array.0" zeroinitializer, comdat, align 4
@_ZGVN10open_spiel5tarok9TarokGame10contracts_E = linkonce_odr global i64 0, comdat($_ZN10open_spiel5tarok9TarokGame10contracts_E), align 8

; Function Attrs: uwtable
define internal void @__cxx_global_var_init.2() #0 section ".text.startup" comdat($_ZN10open_spiel5tarok9TarokGame10contracts_E) personality ptr @__gxx_personality_v0 {
  %1 = alloca ptr, align 8
  %2 = alloca i32, align 4
  %3 = load atomic i8, ptr @_ZGVN10open_spiel5tarok9TarokGame10contracts_E acquire, align 8
  %4 = icmp eq i8 %3, 0
  br i1 %4, label %5, label %10

5:                                                ; preds = %0
  %6 = call i32 @__cxa_guard_acquire(ptr @_ZGVN10open_spiel5tarok9TarokGame10contracts_E) #3
  %7 = icmp ne i32 %6, 0
  br i1 %7, label %8, label %10

8:                                                ; preds = %5
  invoke void @_ZN10open_spiel5tarok19InitializeContractsEv(ptr dead_on_unwind writable sret(%"struct.std::array.0") align 4 @_ZN10open_spiel5tarok9TarokGame10contracts_E)
          to label %9 unwind label %11

9:                                                ; preds = %8
  call void @__cxa_guard_release(ptr @_ZGVN10open_spiel5tarok9TarokGame10contracts_E) #3
  br label %10

10:                                               ; preds = %9, %5, %0
  ret void

11:                                               ; preds = %8
  %12 = landingpad { ptr, i32 }
          cleanup
  %13 = extractvalue { ptr, i32 } %12, 0
  store ptr %13, ptr %1, align 8
  %14 = extractvalue { ptr, i32 } %12, 1
  store i32 %14, ptr %2, align 4
  call void @__cxa_guard_abort(ptr @_ZGVN10open_spiel5tarok9TarokGame10contracts_E) #3
  br label %15

15:                                               ; preds = %11
  %16 = load ptr, ptr %1, align 8
  %17 = load i32, ptr %2, align 4
  %18 = insertvalue { ptr, i32 } poison, ptr %16, 0
  %19 = insertvalue { ptr, i32 } %18, i32 %17, 1
  resume { ptr, i32 } %19
}