; Function Attrs: uwtable
define internal void @__cxx_global_var_init.2() #3 section ".text.startup" comdat($_ZN10open_spiel5tarok9TarokGame10contracts_E) personality ptr @__gxx_personality_v0 {
  %1 = load atomic i8, ptr @_ZGVN10open_spiel5tarok9TarokGame10contracts_E acquire, align 8
  %2 = icmp eq i8 %1, 0
  br i1 %2, label %3, label %7

3:                                                ; preds = %0
  %4 = tail call i32 @__cxa_guard_acquire(ptr nonnull @_ZGVN10open_spiel5tarok9TarokGame10contracts_E) #30
  %.not = icmp eq i32 %4, 0
  br i1 %.not, label %7, label %5

5:                                                ; preds = %3
  invoke void @_ZN10open_spiel5tarok19InitializeContractsEv(ptr dead_on_unwind nonnull writable sret(%"struct.std::array.0") align 4 @_ZN10open_spiel5tarok9TarokGame10contracts_E)
          to label %6 unwind label %8

6:                                                ; preds = %5
  tail call void @__cxa_guard_release(ptr nonnull @_ZGVN10open_spiel5tarok9TarokGame10contracts_E) #30
  br label %7

7:                                                ; preds = %6, %3, %0
  ret void

8:                                                ; preds = %5
  %9 = landingpad { ptr, i32 }
          cleanup
  tail call void @__cxa_guard_abort(ptr nonnull @_ZGVN10open_spiel5tarok9TarokGame10contracts_E) #30
  resume { ptr, i32 } %9
}